(lp0
Vgvonlasz
p1
a.(dp0
S'sierra'
p1
(dp2
S'type'
p3
S'openstack'
p4
sS'name'
p5
g1
sS'servers'
p6
(dp7
V2731c421-d985-44ce-91bf-2a89ce4ba033
p8
(dp9
S'status'
p10
VACTIVE
p11
sg5
Vgvonlasz-001
p12
sS'ip'
p13
Vvlan102=10.1.2.85, 149.165.158.7
p14
sS'refresh'
p15
S'2013-02-11 20:30:06.328264'
p16
sS'id'
p17
g8
sS'cloud'
p18
g1
ssV3cdebbe0-98b0-4eb1-9f6f-6bf3725a31b4
p19
(dp20
g10
VACTIVE
p21
sg5
Vgvonlasz-001
p22
sg13
Vvlan102=10.1.2.17, 149.165.158.133
p23
sg15
g16
sg17
g19
sg18
g1
ssV83bd91a2-c6da-43be-8beb-482d491d85be
p24
(dp25
g10
VACTIVE
p26
sg5
Vgvonlasz-001
p27
sg13
Vvlan102=10.1.2.82, 149.165.158.4
p28
sg15
g16
sg17
g24
sg18
g1
ssVc6b71813-04f1-45d0-bb1f-337c1d84d326
p29
(dp30
g10
VACTIVE
p31
sg5
Vgvonlasz-002
p32
sg13
Vvlan102=10.1.2.33, 149.165.158.155
p33
sg15
g16
sg17
g29
sg18
g1
ssV89da179b-9540-4879-a733-c123f446f741
p34
(dp35
g10
VACTIVE
p36
sg5
Vgvonlasz-000
p37
sg13
Vvlan102=10.1.2.16, 149.165.158.132
p38
sg15
g16
sg17
g34
sg18
g1
ssVf28764ae-d131-4d7d-9b87-47c78c28fdf7
p39
(dp40
g10
VACTIVE
p41
sg5
Vgvonlasz-001
p42
sg13
Vvlan102=10.1.2.84, 149.165.158.6
p43
sg15
g16
sg17
g39
sg18
g1
ssV58899a81-2bfa-4a2b-843e-9e2b2f88a1b9
p44
(dp45
g10
VACTIVE
p46
sg5
Vgvonlasz-001
p47
sg13
Vvlan102=10.1.2.87, 149.165.158.10
p48
sg15
g16
sg17
g44
sg18
g1
ssV90be42a4-99ef-4988-971b-17256431541d
p49
(dp50
g10
VACTIVE
p51
sg5
Vgvonlasz-001
p52
sg13
Vvlan102=10.1.2.83, 149.165.158.5
p53
sg15
g16
sg17
g49
sg18
g1
ssVdb49b94f-7e51-44bb-acff-a0267f59e37a
p54
(dp55
g10
VACTIVE
p56
sg5
Vgvonlasz-003
p57
sg13
Vvlan102=10.1.2.81, 149.165.158.3
p58
sg15
g16
sg17
g54
sg18
g1
ssV3990cda7-6682-4e06-adfe-314667ace6f0
p59
(dp60
g10
VACTIVE
p61
sg5
Vgvonlasz-001
p62
sg13
Vvlan102=10.1.2.86, 149.165.158.9
p63
sg15
g16
sg17
g59
sg18
g1
ssssS'india'
p64
(dp65
g3
g4
sg5
g64
sg6
(dp66
V2731c421-d985-44ce-91bf-2a89ce4ba033
p67
(dp68
g10
VACTIVE
p69
sg5
Vgvonlasz-001
p70
sg13
Vvlan102=10.1.2.85, 149.165.158.7
p71
sg15
S'2013-02-11 20:30:04.472583'
p72
sg17
g67
sg18
g64
ssV3cdebbe0-98b0-4eb1-9f6f-6bf3725a31b4
p73
(dp74
g10
VACTIVE
p75
sg5
Vgvonlasz-001
p76
sg13
Vvlan102=10.1.2.17, 149.165.158.133
p77
sg15
g72
sg17
g73
sg18
g64
ssV83bd91a2-c6da-43be-8beb-482d491d85be
p78
(dp79
g10
VACTIVE
p80
sg5
Vgvonlasz-001
p81
sg13
Vvlan102=10.1.2.82, 149.165.158.4
p82
sg15
g72
sg17
g78
sg18
g64
ssVc6b71813-04f1-45d0-bb1f-337c1d84d326
p83
(dp84
g10
VACTIVE
p85
sg5
Vgvonlasz-002
p86
sg13
Vvlan102=10.1.2.33, 149.165.158.155
p87
sg15
g72
sg17
g83
sg18
g64
ssV89da179b-9540-4879-a733-c123f446f741
p88
(dp89
g10
VACTIVE
p90
sg5
Vgvonlasz-000
p91
sg13
Vvlan102=10.1.2.16, 149.165.158.132
p92
sg15
g72
sg17
g88
sg18
g64
ssVf28764ae-d131-4d7d-9b87-47c78c28fdf7
p93
(dp94
g10
VACTIVE
p95
sg5
Vgvonlasz-001
p96
sg13
Vvlan102=10.1.2.84, 149.165.158.6
p97
sg15
g72
sg17
g93
sg18
g64
ssV58899a81-2bfa-4a2b-843e-9e2b2f88a1b9
p98
(dp99
g10
VACTIVE
p100
sg5
Vgvonlasz-001
p101
sg13
Vvlan102=10.1.2.87, 149.165.158.10
p102
sg15
g72
sg17
g98
sg18
g64
ssV90be42a4-99ef-4988-971b-17256431541d
p103
(dp104
g10
VACTIVE
p105
sg5
Vgvonlasz-001
p106
sg13
Vvlan102=10.1.2.83, 149.165.158.5
p107
sg15
g72
sg17
g103
sg18
g64
ssVdb49b94f-7e51-44bb-acff-a0267f59e37a
p108
(dp109
g10
VACTIVE
p110
sg5
Vgvonlasz-003
p111
sg13
Vvlan102=10.1.2.81, 149.165.158.3
p112
sg15
g72
sg17
g108
sg18
g64
ssV3990cda7-6682-4e06-adfe-314667ace6f0
p113
(dp114
g10
VACTIVE
p115
sg5
Vgvonlasz-001
p116
sg13
Vvlan102=10.1.2.86, 149.165.158.9
p117
sg15
g72
sg17
g113
sg18
g64
ssss.